target datalayout = "e-m:e-p270:32:32-p271:32:32-p272:64:64-i64:64-i128:128-f80:128-n8:16:32:64-S128"
target triple = "x86_64-pc-linux-gnu"

%struct.JNINativeInterface_ = type { ptr, ptr, ptr, ptr, ptr, ptr, ptr, ptr, ptr, ptr, ptr, ptr, ptr, ptr, ptr, ptr, ptr, ptr, ptr, ptr, ptr, ptr, ptr, ptr, ptr, ptr, ptr, ptr, ptr, ptr, ptr, ptr, ptr, ptr, ptr, ptr, ptr, ptr, ptr, ptr, ptr, ptr, ptr, ptr, ptr, ptr, ptr, ptr, ptr, ptr, ptr, ptr, ptr, ptr, ptr, ptr, ptr, ptr, ptr, ptr, ptr, ptr, ptr, ptr, ptr, ptr, ptr, ptr, ptr, ptr, ptr, ptr, ptr, ptr, ptr, ptr, ptr, ptr, ptr, ptr, ptr, ptr, ptr, ptr, ptr, ptr, ptr, ptr, ptr, ptr, ptr, ptr, ptr, ptr, ptr, ptr, ptr, ptr, ptr, ptr, ptr, ptr, ptr, ptr, ptr, ptr, ptr, ptr, ptr, ptr, ptr, ptr, ptr, ptr, ptr, ptr, ptr, ptr, ptr, ptr, ptr, ptr, ptr, ptr, ptr, ptr, ptr, ptr, ptr, ptr, ptr, ptr, ptr, ptr, ptr, ptr, ptr, ptr, ptr, ptr, ptr, ptr, ptr, ptr, ptr, ptr, ptr, ptr, ptr, ptr, ptr, ptr, ptr, ptr, ptr, ptr, ptr, ptr, ptr, ptr, ptr, ptr, ptr, ptr, ptr, ptr, ptr, ptr, ptr, ptr, ptr, ptr, ptr, ptr, ptr, ptr, ptr, ptr, ptr, ptr, ptr, ptr, ptr, ptr, ptr, ptr, ptr, ptr, ptr, ptr, ptr, ptr, ptr, ptr, ptr, ptr, ptr, ptr, ptr, ptr, ptr, ptr, ptr, ptr, ptr, ptr, ptr, ptr, ptr, ptr, ptr, ptr, ptr, ptr, ptr, ptr, ptr, ptr, ptr, ptr, ptr, ptr, ptr, ptr, ptr, ptr, ptr, ptr, ptr, ptr, ptr, ptr, ptr, ptr, ptr }
%struct.decode_env = type { ptr, ptr, ptr, ptr, ptr, [4096 x i8] }
%struct.__va_list_tag = type { i32, i32, ptr, ptr }

; Function Attrs: nounwind uwtable
define internal i32 @printf_to_env(ptr noundef %0, ptr noundef %1, ...) #0 {
  %3 = alloca i32, align 4
  %4 = alloca ptr, align 8
  %5 = alloca ptr, align 8
  %6 = alloca ptr, align 8
  %7 = alloca [1 x %struct.__va_list_tag], align 16
  %8 = alloca i32, align 4
  %9 = alloca ptr, align 8
  %10 = alloca ptr, align 8
  %11 = alloca i64, align 8
  %12 = alloca ptr, align 8
  %13 = alloca ptr, align 8
  store ptr %0, ptr %4, align 8
  store ptr %1, ptr %5, align 8
  %14 = load ptr, ptr %4, align 8
  store ptr %14, ptr %9, align 8
  %15 = load ptr, ptr %9, align 8
  %16 = getelementptr inbounds %struct.decode_env, ptr %15, i32 0, i32 0
  %17 = load ptr, ptr %16, align 8
  store ptr %17, ptr %10, align 8
  %18 = load ptr, ptr %5, align 8
  %19 = call i64 @strlen(ptr noundef %18) #6
  store i64 %19, ptr %11, align 8
  store ptr null, ptr %12, align 8
  %20 = load i64, ptr %11, align 8
  %21 = icmp eq i64 %20, 0
  br i1 %21, label %22, label %23

22:                                               ; preds = %2
  store i32 0, ptr %3, align 4
  br label %163

23:                                               ; preds = %2
  %24 = load i64, ptr %11, align 8
  %25 = icmp ult i64 %24, 2
  br i1 %25, label %30, label %26

26:                                               ; preds = %23
  %27 = load ptr, ptr %5, align 8
  %28 = call ptr @strchr(ptr noundef %27, i32 noundef 37) #6
  %29 = icmp eq ptr %28, null
  br i1 %29, label %30, label %32

30:                                               ; preds = %26, %23
  %31 = load ptr, ptr %5, align 8
  store ptr %31, ptr %12, align 8
  br label %55

32:                                               ; preds = %26
  %33 = load ptr, ptr %5, align 8
  %34 = getelementptr inbounds i8, ptr %33, i64 0
  %35 = load i8, ptr %34, align 1
  %36 = sext i8 %35 to i32
  %37 = icmp eq i32 %36, 37
  br i1 %37, label %38, label %54

38:                                               ; preds = %32
  %39 = load ptr, ptr %5, align 8
  %40 = getelementptr inbounds i8, ptr %39, i64 1
  %41 = load i8, ptr %40, align 1
  %42 = sext i8 %41 to i32
  %43 = icmp eq i32 %42, 37
  br i1 %43, label %44, label %54

44:                                               ; preds = %38
  %45 = load ptr, ptr %5, align 8
  %46 = getelementptr inbounds i8, ptr %45, i64 2
  %47 = call ptr @strchr(ptr noundef %46, i32 noundef 37) #6
  %48 = icmp eq ptr %47, null
  br i1 %48, label %49, label %54

49:                                               ; preds = %44
  %50 = load i64, ptr %11, align 8
  %51 = add i64 %50, -1
  store i64 %51, ptr %11, align 8
  %52 = load ptr, ptr %5, align 8
  %53 = getelementptr inbounds i8, ptr %52, i64 1
  store ptr %53, ptr %12, align 8
  br label %54

54:                                               ; preds = %49, %44, %38, %32
  br label %55

55:                                               ; preds = %54, %30
  %56 = load ptr, ptr %12, align 8
  %57 = icmp ne ptr %56, null
  br i1 %57, label %58, label %106

58:                                               ; preds = %55
  %59 = load ptr, ptr %10, align 8
  %60 = load ptr, ptr %59, align 8
  %61 = getelementptr inbounds %struct.JNINativeInterface_, ptr %60, i32 0, i32 167
  %62 = load ptr, ptr %61, align 8
  %63 = load ptr, ptr %10, align 8
  %64 = load ptr, ptr %12, align 8
  %65 = call ptr %62(ptr noundef %63, ptr noundef %64)
  store ptr %65, ptr %13, align 8
  %66 = load ptr, ptr %10, align 8
  %67 = load ptr, ptr %66, align 8
  %68 = getelementptr inbounds %struct.JNINativeInterface_, ptr %67, i32 0, i32 15
  %69 = load ptr, ptr %68, align 8
  %70 = load ptr, ptr %10, align 8
  %71 = call ptr %69(ptr noundef %70)
  %72 = icmp ne ptr %71, null
  br i1 %72, label %89, label %73

73:                                               ; preds = %58
  %74 = load ptr, ptr %10, align 8
  %75 = load ptr, ptr %74, align 8
  %76 = getelementptr inbounds %struct.JNINativeInterface_, ptr %75, i32 0, i32 61
  %77 = load ptr, ptr %76, align 8
  %78 = load ptr, ptr %10, align 8
  %79 = load ptr, ptr %9, align 8
  %80 = getelementptr inbounds %struct.decode_env, ptr %79, i32 0, i32 1
  %81 = load ptr, ptr %80, align 8
  %82 = load ptr, ptr %9, align 8
  %83 = getelementptr inbounds %struct.decode_env, ptr %82, i32 0, i32 4
  %84 = load ptr, ptr %83, align 8
  %85 = load ptr, ptr %9, align 8
  %86 = getelementptr inbounds %struct.decode_env, ptr %85, i32 0, i32 2
  %87 = load ptr, ptr %86, align 8
  %88 = load ptr, ptr %13, align 8
  call void (ptr, ptr, ptr, ...) %77(ptr noundef %78, ptr noundef %81, ptr noundef %84, ptr noundef %87, ptr noundef %88)
  br label %89

89:                                               ; preds = %73, %58
  %90 = load ptr, ptr %10, align 8
  %91 = load ptr, ptr %90, align 8
  %92 = getelementptr inbounds %struct.JNINativeInterface_, ptr %91, i32 0, i32 15
  %93 = load ptr, ptr %92, align 8
  %94 = load ptr, ptr %10, align 8
  %95 = call ptr %93(ptr noundef %94)
  %96 = icmp ne ptr %95, null
  br i1 %96, label %97, label %103

97:                                               ; preds = %89
  %98 = load ptr, ptr %10, align 8
  %99 = load ptr, ptr %98, align 8
  %100 = getelementptr inbounds %struct.JNINativeInterface_, ptr %99, i32 0, i32 17
  %101 = load ptr, ptr %100, align 8
  %102 = load ptr, ptr %10, align 8
  call void %101(ptr noundef %102)
  br label %103

103:                                              ; preds = %97, %89
  %104 = load i64, ptr %11, align 8
  %105 = trunc i64 %104 to i32
  store i32 %105, ptr %3, align 4
  br label %163

106:                                              ; preds = %55
  %107 = getelementptr inbounds [1 x %struct.__va_list_tag], ptr %7, i64 0, i64 0
  call void @llvm.va_start.p0(ptr %107)
  %108 = load ptr, ptr %9, align 8
  %109 = getelementptr inbounds %struct.decode_env, ptr %108, i32 0, i32 5
  %110 = getelementptr inbounds [4096 x i8], ptr %109, i64 0, i64 0
  %111 = load ptr, ptr %5, align 8
  %112 = getelementptr inbounds [1 x %struct.__va_list_tag], ptr %7, i64 0, i64 0
  %113 = call i32 @vsnprintf(ptr noundef %110, i64 noundef 4096, ptr noundef %111, ptr noundef %112) #5
  store i32 %113, ptr %8, align 4
  %114 = getelementptr inbounds [1 x %struct.__va_list_tag], ptr %7, i64 0, i64 0
  call void @llvm.va_end.p0(ptr %114)
  %115 = load ptr, ptr %10, align 8
  %116 = load ptr, ptr %115, align 8
  %117 = getelementptr inbounds %struct.JNINativeInterface_, ptr %116, i32 0, i32 167
  %118 = load ptr, ptr %117, align 8
  %119 = load ptr, ptr %10, align 8
  %120 = load ptr, ptr %9, align 8
  %121 = getelementptr inbounds %struct.decode_env, ptr %120, i32 0, i32 5
  %122 = getelementptr inbounds [4096 x i8], ptr %121, i64 0, i64 0
  %123 = call ptr %118(ptr noundef %119, ptr noundef %122)
  store ptr %123, ptr %6, align 8
  %124 = load ptr, ptr %10, align 8
  %125 = load ptr, ptr %124, align 8
  %126 = getelementptr inbounds %struct.JNINativeInterface_, ptr %125, i32 0, i32 15
  %127 = load ptr, ptr %126, align 8
  %128 = load ptr, ptr %10, align 8
  %129 = call ptr %127(ptr noundef %128)
  %130 = icmp ne ptr %129, null
  br i1 %130, label %147, label %131

131:                                              ; preds = %106
  %132 = load ptr, ptr %10, align 8
  %133 = load ptr, ptr %132, align 8
  %134 = getelementptr inbounds %struct.JNINativeInterface_, ptr %133, i32 0, i32 61
  %135 = load ptr, ptr %134, align 8
  %136 = load ptr, ptr %10, align 8
  %137 = load ptr, ptr %9, align 8
  %138 = getelementptr inbounds %struct.decode_env, ptr %137, i32 0, i32 1
  %139 = load ptr, ptr %138, align 8
  %140 = load ptr, ptr %9, align 8
  %141 = getelementptr inbounds %struct.decode_env, ptr %140, i32 0, i32 4
  %142 = load ptr, ptr %141, align 8
  %143 = load ptr, ptr %9, align 8
  %144 = getelementptr inbounds %struct.decode_env, ptr %143, i32 0, i32 2
  %145 = load ptr, ptr %144, align 8
  %146 = load ptr, ptr %6, align 8
  call void (ptr, ptr, ptr, ...) %135(ptr noundef %136, ptr noundef %139, ptr noundef %142, ptr noundef %145, ptr noundef %146)
  br label %147

147:                                              ; preds = %131, %106
  %148 = load ptr, ptr %10, align 8
  %149 = load ptr, ptr %148, align 8
  %150 = getelementptr inbounds %struct.JNINativeInterface_, ptr %149, i32 0, i32 15
  %151 = load ptr, ptr %150, align 8
  %152 = load ptr, ptr %10, align 8
  %153 = call ptr %151(ptr noundef %152)
  %154 = icmp ne ptr %153, null
  br i1 %154, label %155, label %161

155:                                              ; preds = %147
  %156 = load ptr, ptr %10, align 8
  %157 = load ptr, ptr %156, align 8
  %158 = getelementptr inbounds %struct.JNINativeInterface_, ptr %157, i32 0, i32 17
  %159 = load ptr, ptr %158, align 8
  %160 = load ptr, ptr %10, align 8
  call void %159(ptr noundef %160)
  br label %161

161:                                              ; preds = %155, %147
  %162 = load i32, ptr %8, align 4
  store i32 %162, ptr %3, align 4
  br label %163

163:                                              ; preds = %161, %103, %22
  %164 = load i32, ptr %3, align 4
  ret i32 %164
}