; Function Attrs: nounwind uwtable
define internal noundef i32 @printf_to_env(ptr noundef %0, ptr noundef %1, ...) #0 {
  %3 = alloca [1 x %struct.__va_list_tag], align 16
  %4 = load ptr, ptr %0, align 8
  %5 = tail call i64 @strlen(ptr noundef nonnull dereferenceable(1) %1) #7
  switch i64 %5, label %6 [
    i64 0, label %80
    i64 1, label %21
  ]

6:                                                ; preds = %2
  %7 = tail call ptr @strchr(ptr noundef nonnull dereferenceable(1) %1, i32 noundef 37) #7
  %8 = icmp eq ptr %7, null
  br i1 %8, label %21, label %9

9:                                                ; preds = %6
  %10 = load i8, ptr %1, align 1
  %11 = icmp eq i8 %10, 37
  br i1 %11, label %12, label %.thread

12:                                               ; preds = %9
  %13 = getelementptr inbounds i8, ptr %1, i64 1
  %14 = load i8, ptr %13, align 1
  %15 = icmp eq i8 %14, 37
  br i1 %15, label %16, label %.thread

16:                                               ; preds = %12
  %17 = getelementptr inbounds i8, ptr %1, i64 2
  %18 = tail call ptr @strchr(ptr noundef nonnull dereferenceable(1) %17, i32 noundef 37) #7
  %19 = icmp eq ptr %18, null
  %20 = add i64 %5, -1
  br i1 %19, label %.thread58, label %.thread

21:                                               ; preds = %6, %2
  %.not = icmp eq ptr %1, null
  br i1 %.not, label %.thread, label %.thread58

.thread58:                                        ; preds = %16, %21
  %.04763 = phi ptr [ %1, %21 ], [ %13, %16 ]
  %.04862 = phi i64 [ %5, %21 ], [ %20, %16 ]
  %22 = load ptr, ptr %4, align 8
  %23 = getelementptr inbounds i8, ptr %22, i64 1336
  %24 = load ptr, ptr %23, align 8
  %25 = tail call ptr %24(ptr noundef nonnull %4, ptr noundef nonnull %.04763) #6
  %26 = load ptr, ptr %4, align 8
  %27 = getelementptr inbounds i8, ptr %26, i64 120
  %28 = load ptr, ptr %27, align 8
  %29 = tail call ptr %28(ptr noundef nonnull %4) #6
  %.not52 = icmp eq ptr %29, null
  br i1 %.not52, label %30, label %40

30:                                               ; preds = %.thread58
  %31 = load ptr, ptr %4, align 8
  %32 = getelementptr inbounds i8, ptr %31, i64 488
  %33 = load ptr, ptr %32, align 8
  %34 = getelementptr inbounds i8, ptr %0, i64 8
  %35 = load ptr, ptr %34, align 8
  %36 = getelementptr inbounds i8, ptr %0, i64 32
  %37 = load ptr, ptr %36, align 8
  %38 = getelementptr inbounds i8, ptr %0, i64 16
  %39 = load ptr, ptr %38, align 8
  tail call void (ptr, ptr, ptr, ...) %33(ptr noundef nonnull %4, ptr noundef %35, ptr noundef %37, ptr noundef %39, ptr noundef %25) #6
  br label %40

40:                                               ; preds = %30, %.thread58
  %41 = load ptr, ptr %4, align 8
  %42 = getelementptr inbounds i8, ptr %41, i64 120
  %43 = load ptr, ptr %42, align 8
  %44 = tail call ptr %43(ptr noundef nonnull %4) #6
  %.not53 = icmp eq ptr %44, null
  br i1 %.not53, label %49, label %45

45:                                               ; preds = %40
  %46 = load ptr, ptr %4, align 8
  %47 = getelementptr inbounds i8, ptr %46, i64 136
  %48 = load ptr, ptr %47, align 8
  tail call void %48(ptr noundef nonnull %4) #6
  br label %49

49:                                               ; preds = %45, %40
  %50 = trunc i64 %.04862 to i32
  br label %80

.thread:                                          ; preds = %16, %9, %12, %21
  call void @llvm.va_start.p0(ptr nonnull %3)
  %51 = getelementptr inbounds i8, ptr %0, i64 40
  %52 = call i32 @vsnprintf(ptr noundef nonnull %51, i64 noundef 4096, ptr noundef %1, ptr noundef nonnull %3) #6
  call void @llvm.va_end.p0(ptr nonnull %3)
  %53 = load ptr, ptr %4, align 8
  %54 = getelementptr inbounds i8, ptr %53, i64 1336
  %55 = load ptr, ptr %54, align 8
  %56 = call ptr %55(ptr noundef nonnull %4, ptr noundef nonnull %51) #6
  %57 = load ptr, ptr %4, align 8
  %58 = getelementptr inbounds i8, ptr %57, i64 120
  %59 = load ptr, ptr %58, align 8
  %60 = call ptr %59(ptr noundef nonnull %4) #6
  %.not50 = icmp eq ptr %60, null
  br i1 %.not50, label %61, label %71

61:                                               ; preds = %.thread
  %62 = load ptr, ptr %4, align 8
  %63 = getelementptr inbounds i8, ptr %62, i64 488
  %64 = load ptr, ptr %63, align 8
  %65 = getelementptr inbounds i8, ptr %0, i64 8
  %66 = load ptr, ptr %65, align 8
  %67 = getelementptr inbounds i8, ptr %0, i64 32
  %68 = load ptr, ptr %67, align 8
  %69 = getelementptr inbounds i8, ptr %0, i64 16
  %70 = load ptr, ptr %69, align 8
  call void (ptr, ptr, ptr, ...) %64(ptr noundef nonnull %4, ptr noundef %66, ptr noundef %68, ptr noundef %70, ptr noundef %56) #6
  br label %71

71:                                               ; preds = %61, %.thread
  %72 = load ptr, ptr %4, align 8
  %73 = getelementptr inbounds i8, ptr %72, i64 120
  %74 = load ptr, ptr %73, align 8
  %75 = call ptr %74(ptr noundef nonnull %4) #6
  %.not51 = icmp eq ptr %75, null
  br i1 %.not51, label %80, label %76

76:                                               ; preds = %71
  %77 = load ptr, ptr %4, align 8
  %78 = getelementptr inbounds i8, ptr %77, i64 136
  %79 = load ptr, ptr %78, align 8
  call void %79(ptr noundef nonnull %4) #6
  br label %80

80:                                               ; preds = %71, %76, %2, %49
  %.0 = phi i32 [ %50, %49 ], [ 0, %2 ], [ %52, %76 ], [ %52, %71 ]
  ret i32 %.0
}